target datalayout = "e-m:e-p270:32:32-p271:32:32-p272:64:64-i64:64-i128:128-f80:128-n8:16:32:64-S128"
target triple = "x86_64-pc-linux-gnu"

%struct.VP9DSPContext = type { [4 x [15 x ptr]], [5 x [4 x ptr]], [3 x [2 x ptr]], [2 x ptr], [2 x [2 x [2 x ptr]]], [5 x [4 x [2 x [2 x [2 x ptr]]]]], [5 x [4 x [2 x ptr]]] }

; Function Attrs: cold nounwind optsize uwtable
define void @ff_vp9dsp_intrapred_init_10(ptr noundef %0) #0 {
  %2 = alloca ptr, align 8
  store ptr %0, ptr %2, align 8, !tbaa !4
  %3 = load ptr, ptr %2, align 8, !tbaa !4
  %4 = getelementptr inbounds nuw %struct.VP9DSPContext, ptr %3, i32 0, i32 0
  %5 = getelementptr inbounds [4 x [15 x ptr]], ptr %4, i64 0, i64 0
  %6 = getelementptr inbounds [15 x ptr], ptr %5, i64 0, i64 0
  store ptr @vert_4x4_c, ptr %6, align 8, !tbaa !9
  %7 = load ptr, ptr %2, align 8, !tbaa !4
  %8 = getelementptr inbounds nuw %struct.VP9DSPContext, ptr %7, i32 0, i32 0
  %9 = getelementptr inbounds [4 x [15 x ptr]], ptr %8, i64 0, i64 0
  %10 = getelementptr inbounds [15 x ptr], ptr %9, i64 0, i64 1
  store ptr @hor_4x4_c, ptr %10, align 8, !tbaa !9
  %11 = load ptr, ptr %2, align 8, !tbaa !4
  %12 = getelementptr inbounds nuw %struct.VP9DSPContext, ptr %11, i32 0, i32 0
  %13 = getelementptr inbounds [4 x [15 x ptr]], ptr %12, i64 0, i64 0
  %14 = getelementptr inbounds [15 x ptr], ptr %13, i64 0, i64 2
  store ptr @dc_4x4_c, ptr %14, align 8, !tbaa !9
  %15 = load ptr, ptr %2, align 8, !tbaa !4
  %16 = getelementptr inbounds nuw %struct.VP9DSPContext, ptr %15, i32 0, i32 0
  %17 = getelementptr inbounds [4 x [15 x ptr]], ptr %16, i64 0, i64 0
  %18 = getelementptr inbounds [15 x ptr], ptr %17, i64 0, i64 3
  store ptr @diag_downleft_4x4_c, ptr %18, align 8, !tbaa !9
  %19 = load ptr, ptr %2, align 8, !tbaa !4
  %20 = getelementptr inbounds nuw %struct.VP9DSPContext, ptr %19, i32 0, i32 0
  %21 = getelementptr inbounds [4 x [15 x ptr]], ptr %20, i64 0, i64 0
  %22 = getelementptr inbounds [15 x ptr], ptr %21, i64 0, i64 4
  store ptr @diag_downright_4x4_c, ptr %22, align 8, !tbaa !9
  %23 = load ptr, ptr %2, align 8, !tbaa !4
  %24 = getelementptr inbounds nuw %struct.VP9DSPContext, ptr %23, i32 0, i32 0
  %25 = getelementptr inbounds [4 x [15 x ptr]], ptr %24, i64 0, i64 0
  %26 = getelementptr inbounds [15 x ptr], ptr %25, i64 0, i64 5
  store ptr @vert_right_4x4_c, ptr %26, align 8, !tbaa !9
  %27 = load ptr, ptr %2, align 8, !tbaa !4
  %28 = getelementptr inbounds nuw %struct.VP9DSPContext, ptr %27, i32 0, i32 0
  %29 = getelementptr inbounds [4 x [15 x ptr]], ptr %28, i64 0, i64 0
  %30 = getelementptr inbounds [15 x ptr], ptr %29, i64 0, i64 6
  store ptr @hor_down_4x4_c, ptr %30, align 8, !tbaa !9
  %31 = load ptr, ptr %2, align 8, !tbaa !4
  %32 = getelementptr inbounds nuw %struct.VP9DSPContext, ptr %31, i32 0, i32 0
  %33 = getelementptr inbounds [4 x [15 x ptr]], ptr %32, i64 0, i64 0
  %34 = getelementptr inbounds [15 x ptr], ptr %33, i64 0, i64 7
  store ptr @vert_left_4x4_c, ptr %34, align 8, !tbaa !9
  %35 = load ptr, ptr %2, align 8, !tbaa !4
  %36 = getelementptr inbounds nuw %struct.VP9DSPContext, ptr %35, i32 0, i32 0
  %37 = getelementptr inbounds [4 x [15 x ptr]], ptr %36, i64 0, i64 0
  %38 = getelementptr inbounds [15 x ptr], ptr %37, i64 0, i64 8
  store ptr @hor_up_4x4_c, ptr %38, align 8, !tbaa !9
  %39 = load ptr, ptr %2, align 8, !tbaa !4
  %40 = getelementptr inbounds nuw %struct.VP9DSPContext, ptr %39, i32 0, i32 0
  %41 = getelementptr inbounds [4 x [15 x ptr]], ptr %40, i64 0, i64 0
  %42 = getelementptr inbounds [15 x ptr], ptr %41, i64 0, i64 10
  store ptr @dc_left_4x4_c, ptr %42, align 8, !tbaa !9
  %43 = load ptr, ptr %2, align 8, !tbaa !4
  %44 = getelementptr inbounds nuw %struct.VP9DSPContext, ptr %43, i32 0, i32 0
  %45 = getelementptr inbounds [4 x [15 x ptr]], ptr %44, i64 0, i64 0
  %46 = getelementptr inbounds [15 x ptr], ptr %45, i64 0, i64 11
  store ptr @dc_top_4x4_c, ptr %46, align 8, !tbaa !9
  %47 = load ptr, ptr %2, align 8, !tbaa !4
  %48 = getelementptr inbounds nuw %struct.VP9DSPContext, ptr %47, i32 0, i32 0
  %49 = getelementptr inbounds [4 x [15 x ptr]], ptr %48, i64 0, i64 0
  %50 = getelementptr inbounds [15 x ptr], ptr %49, i64 0, i64 9
  store ptr @tm_4x4_c, ptr %50, align 8, !tbaa !9
  %51 = load ptr, ptr %2, align 8, !tbaa !4
  %52 = getelementptr inbounds nuw %struct.VP9DSPContext, ptr %51, i32 0, i32 0
  %53 = getelementptr inbounds [4 x [15 x ptr]], ptr %52, i64 0, i64 0
  %54 = getelementptr inbounds [15 x ptr], ptr %53, i64 0, i64 12
  store ptr @dc_128_4x4_c, ptr %54, align 8, !tbaa !9
  %55 = load ptr, ptr %2, align 8, !tbaa !4
  %56 = getelementptr inbounds nuw %struct.VP9DSPContext, ptr %55, i32 0, i32 0
  %57 = getelementptr inbounds [4 x [15 x ptr]], ptr %56, i64 0, i64 0
  %58 = getelementptr inbounds [15 x ptr], ptr %57, i64 0, i64 13
  store ptr @dc_127_4x4_c, ptr %58, align 8, !tbaa !9
  %59 = load ptr, ptr %2, align 8, !tbaa !4
  %60 = getelementptr inbounds nuw %struct.VP9DSPContext, ptr %59, i32 0, i32 0
  %61 = getelementptr inbounds [4 x [15 x ptr]], ptr %60, i64 0, i64 0
  %62 = getelementptr inbounds [15 x ptr], ptr %61, i64 0, i64 14
  store ptr @dc_129_4x4_c, ptr %62, align 8, !tbaa !9
  %63 = load ptr, ptr %2, align 8, !tbaa !4
  %64 = getelementptr inbounds nuw %struct.VP9DSPContext, ptr %63, i32 0, i32 0
  %65 = getelementptr inbounds [4 x [15 x ptr]], ptr %64, i64 0, i64 1
  %66 = getelementptr inbounds [15 x ptr], ptr %65, i64 0, i64 0
  store ptr @vert_8x8_c, ptr %66, align 8, !tbaa !9
  %67 = load ptr, ptr %2, align 8, !tbaa !4
  %68 = getelementptr inbounds nuw %struct.VP9DSPContext, ptr %67, i32 0, i32 0
  %69 = getelementptr inbounds [4 x [15 x ptr]], ptr %68, i64 0, i64 1
  %70 = getelementptr inbounds [15 x ptr], ptr %69, i64 0, i64 1
  store ptr @hor_8x8_c, ptr %70, align 8, !tbaa !9
  %71 = load ptr, ptr %2, align 8, !tbaa !4
  %72 = getelementptr inbounds nuw %struct.VP9DSPContext, ptr %71, i32 0, i32 0
  %73 = getelementptr inbounds [4 x [15 x ptr]], ptr %72, i64 0, i64 1
  %74 = getelementptr inbounds [15 x ptr], ptr %73, i64 0, i64 2
  store ptr @dc_8x8_c, ptr %74, align 8, !tbaa !9
  %75 = load ptr, ptr %2, align 8, !tbaa !4
  %76 = getelementptr inbounds nuw %struct.VP9DSPContext, ptr %75, i32 0, i32 0
  %77 = getelementptr inbounds [4 x [15 x ptr]], ptr %76, i64 0, i64 1
  %78 = getelementptr inbounds [15 x ptr], ptr %77, i64 0, i64 3
  store ptr @diag_downleft_8x8_c, ptr %78, align 8, !tbaa !9
  %79 = load ptr, ptr %2, align 8, !tbaa !4
  %80 = getelementptr inbounds nuw %struct.VP9DSPContext, ptr %79, i32 0, i32 0
  %81 = getelementptr inbounds [4 x [15 x ptr]], ptr %80, i64 0, i64 1
  %82 = getelementptr inbounds [15 x ptr], ptr %81, i64 0, i64 4
  store ptr @diag_downright_8x8_c, ptr %82, align 8, !tbaa !9
  %83 = load ptr, ptr %2, align 8, !tbaa !4
  %84 = getelementptr inbounds nuw %struct.VP9DSPContext, ptr %83, i32 0, i32 0
  %85 = getelementptr inbounds [4 x [15 x ptr]], ptr %84, i64 0, i64 1
  %86 = getelementptr inbounds [15 x ptr], ptr %85, i64 0, i64 5
  store ptr @vert_right_8x8_c, ptr %86, align 8, !tbaa !9
  %87 = load ptr, ptr %2, align 8, !tbaa !4
  %88 = getelementptr inbounds nuw %struct.VP9DSPContext, ptr %87, i32 0, i32 0
  %89 = getelementptr inbounds [4 x [15 x ptr]], ptr %88, i64 0, i64 1
  %90 = getelementptr inbounds [15 x ptr], ptr %89, i64 0, i64 6
  store ptr @hor_down_8x8_c, ptr %90, align 8, !tbaa !9
  %91 = load ptr, ptr %2, align 8, !tbaa !4
  %92 = getelementptr inbounds nuw %struct.VP9DSPContext, ptr %91, i32 0, i32 0
  %93 = getelementptr inbounds [4 x [15 x ptr]], ptr %92, i64 0, i64 1
  %94 = getelementptr inbounds [15 x ptr], ptr %93, i64 0, i64 7
  store ptr @vert_left_8x8_c, ptr %94, align 8, !tbaa !9
  %95 = load ptr, ptr %2, align 8, !tbaa !4
  %96 = getelementptr inbounds nuw %struct.VP9DSPContext, ptr %95, i32 0, i32 0
  %97 = getelementptr inbounds [4 x [15 x ptr]], ptr %96, i64 0, i64 1
  %98 = getelementptr inbounds [15 x ptr], ptr %97, i64 0, i64 8
  store ptr @hor_up_8x8_c, ptr %98, align 8, !tbaa !9
  %99 = load ptr, ptr %2, align 8, !tbaa !4
  %100 = getelementptr inbounds nuw %struct.VP9DSPContext, ptr %99, i32 0, i32 0
  %101 = getelementptr inbounds [4 x [15 x ptr]], ptr %100, i64 0, i64 1
  %102 = getelementptr inbounds [15 x ptr], ptr %101, i64 0, i64 10
  store ptr @dc_left_8x8_c, ptr %102, align 8, !tbaa !9
  %103 = load ptr, ptr %2, align 8, !tbaa !4
  %104 = getelementptr inbounds nuw %struct.VP9DSPContext, ptr %103, i32 0, i32 0
  %105 = getelementptr inbounds [4 x [15 x ptr]], ptr %104, i64 0, i64 1
  %106 = getelementptr inbounds [15 x ptr], ptr %105, i64 0, i64 11
  store ptr @dc_top_8x8_c, ptr %106, align 8, !tbaa !9
  %107 = load ptr, ptr %2, align 8, !tbaa !4
  %108 = getelementptr inbounds nuw %struct.VP9DSPContext, ptr %107, i32 0, i32 0
  %109 = getelementptr inbounds [4 x [15 x ptr]], ptr %108, i64 0, i64 1
  %110 = getelementptr inbounds [15 x ptr], ptr %109, i64 0, i64 9
  store ptr @tm_8x8_c, ptr %110, align 8, !tbaa !9
  %111 = load ptr, ptr %2, align 8, !tbaa !4
  %112 = getelementptr inbounds nuw %struct.VP9DSPContext, ptr %111, i32 0, i32 0
  %113 = getelementptr inbounds [4 x [15 x ptr]], ptr %112, i64 0, i64 1
  %114 = getelementptr inbounds [15 x ptr], ptr %113, i64 0, i64 12
  store ptr @dc_128_8x8_c, ptr %114, align 8, !tbaa !9
  %115 = load ptr, ptr %2, align 8, !tbaa !4
  %116 = getelementptr inbounds nuw %struct.VP9DSPContext, ptr %115, i32 0, i32 0
  %117 = getelementptr inbounds [4 x [15 x ptr]], ptr %116, i64 0, i64 1
  %118 = getelementptr inbounds [15 x ptr], ptr %117, i64 0, i64 13
  store ptr @dc_127_8x8_c, ptr %118, align 8, !tbaa !9
  %119 = load ptr, ptr %2, align 8, !tbaa !4
  %120 = getelementptr inbounds nuw %struct.VP9DSPContext, ptr %119, i32 0, i32 0
  %121 = getelementptr inbounds [4 x [15 x ptr]], ptr %120, i64 0, i64 1
  %122 = getelementptr inbounds [15 x ptr], ptr %121, i64 0, i64 14
  store ptr @dc_129_8x8_c, ptr %122, align 8, !tbaa !9
  %123 = load ptr, ptr %2, align 8, !tbaa !4
  %124 = getelementptr inbounds nuw %struct.VP9DSPContext, ptr %123, i32 0, i32 0
  %125 = getelementptr inbounds [4 x [15 x ptr]], ptr %124, i64 0, i64 2
  %126 = getelementptr inbounds [15 x ptr], ptr %125, i64 0, i64 0
  store ptr @vert_16x16_c, ptr %126, align 8, !tbaa !9
  %127 = load ptr, ptr %2, align 8, !tbaa !4
  %128 = getelementptr inbounds nuw %struct.VP9DSPContext, ptr %127, i32 0, i32 0
  %129 = getelementptr inbounds [4 x [15 x ptr]], ptr %128, i64 0, i64 2
  %130 = getelementptr inbounds [15 x ptr], ptr %129, i64 0, i64 1
  store ptr @hor_16x16_c, ptr %130, align 8, !tbaa !9
  %131 = load ptr, ptr %2, align 8, !tbaa !4
  %132 = getelementptr inbounds nuw %struct.VP9DSPContext, ptr %131, i32 0, i32 0
  %133 = getelementptr inbounds [4 x [15 x ptr]], ptr %132, i64 0, i64 2
  %134 = getelementptr inbounds [15 x ptr], ptr %133, i64 0, i64 2
  store ptr @dc_16x16_c, ptr %134, align 8, !tbaa !9
  %135 = load ptr, ptr %2, align 8, !tbaa !4
  %136 = getelementptr inbounds nuw %struct.VP9DSPContext, ptr %135, i32 0, i32 0
  %137 = getelementptr inbounds [4 x [15 x ptr]], ptr %136, i64 0, i64 2
  %138 = getelementptr inbounds [15 x ptr], ptr %137, i64 0, i64 3
  store ptr @diag_downleft_16x16_c, ptr %138, align 8, !tbaa !9
  %139 = load ptr, ptr %2, align 8, !tbaa !4
  %140 = getelementptr inbounds nuw %struct.VP9DSPContext, ptr %139, i32 0, i32 0
  %141 = getelementptr inbounds [4 x [15 x ptr]], ptr %140, i64 0, i64 2
  %142 = getelementptr inbounds [15 x ptr], ptr %141, i64 0, i64 4
  store ptr @diag_downright_16x16_c, ptr %142, align 8, !tbaa !9
  %143 = load ptr, ptr %2, align 8, !tbaa !4
  %144 = getelementptr inbounds nuw %struct.VP9DSPContext, ptr %143, i32 0, i32 0
  %145 = getelementptr inbounds [4 x [15 x ptr]], ptr %144, i64 0, i64 2
  %146 = getelementptr inbounds [15 x ptr], ptr %145, i64 0, i64 5
  store ptr @vert_right_16x16_c, ptr %146, align 8, !tbaa !9
  %147 = load ptr, ptr %2, align 8, !tbaa !4
  %148 = getelementptr inbounds nuw %struct.VP9DSPContext, ptr %147, i32 0, i32 0
  %149 = getelementptr inbounds [4 x [15 x ptr]], ptr %148, i64 0, i64 2
  %150 = getelementptr inbounds [15 x ptr], ptr %149, i64 0, i64 6
  store ptr @hor_down_16x16_c, ptr %150, align 8, !tbaa !9
  %151 = load ptr, ptr %2, align 8, !tbaa !4
  %152 = getelementptr inbounds nuw %struct.VP9DSPContext, ptr %151, i32 0, i32 0
  %153 = getelementptr inbounds [4 x [15 x ptr]], ptr %152, i64 0, i64 2
  %154 = getelementptr inbounds [15 x ptr], ptr %153, i64 0, i64 7
  store ptr @vert_left_16x16_c, ptr %154, align 8, !tbaa !9
  %155 = load ptr, ptr %2, align 8, !tbaa !4
  %156 = getelementptr inbounds nuw %struct.VP9DSPContext, ptr %155, i32 0, i32 0
  %157 = getelementptr inbounds [4 x [15 x ptr]], ptr %156, i64 0, i64 2
  %158 = getelementptr inbounds [15 x ptr], ptr %157, i64 0, i64 8
  store ptr @hor_up_16x16_c, ptr %158, align 8, !tbaa !9
  %159 = load ptr, ptr %2, align 8, !tbaa !4
  %160 = getelementptr inbounds nuw %struct.VP9DSPContext, ptr %159, i32 0, i32 0
  %161 = getelementptr inbounds [4 x [15 x ptr]], ptr %160, i64 0, i64 2
  %162 = getelementptr inbounds [15 x ptr], ptr %161, i64 0, i64 10
  store ptr @dc_left_16x16_c, ptr %162, align 8, !tbaa !9
  %163 = load ptr, ptr %2, align 8, !tbaa !4
  %164 = getelementptr inbounds nuw %struct.VP9DSPContext, ptr %163, i32 0, i32 0
  %165 = getelementptr inbounds [4 x [15 x ptr]], ptr %164, i64 0, i64 2
  %166 = getelementptr inbounds [15 x ptr], ptr %165, i64 0, i64 11
  store ptr @dc_top_16x16_c, ptr %166, align 8, !tbaa !9
  %167 = load ptr, ptr %2, align 8, !tbaa !4
  %168 = getelementptr inbounds nuw %struct.VP9DSPContext, ptr %167, i32 0, i32 0
  %169 = getelementptr inbounds [4 x [15 x ptr]], ptr %168, i64 0, i64 2
  %170 = getelementptr inbounds [15 x ptr], ptr %169, i64 0, i64 9
  store ptr @tm_16x16_c, ptr %170, align 8, !tbaa !9
  %171 = load ptr, ptr %2, align 8, !tbaa !4
  %172 = getelementptr inbounds nuw %struct.VP9DSPContext, ptr %171, i32 0, i32 0
  %173 = getelementptr inbounds [4 x [15 x ptr]], ptr %172, i64 0, i64 2
  %174 = getelementptr inbounds [15 x ptr], ptr %173, i64 0, i64 12
  store ptr @dc_128_16x16_c, ptr %174, align 8, !tbaa !9
  %175 = load ptr, ptr %2, align 8, !tbaa !4
  %176 = getelementptr inbounds nuw %struct.VP9DSPContext, ptr %175, i32 0, i32 0
  %177 = getelementptr inbounds [4 x [15 x ptr]], ptr %176, i64 0, i64 2
  %178 = getelementptr inbounds [15 x ptr], ptr %177, i64 0, i64 13
  store ptr @dc_127_16x16_c, ptr %178, align 8, !tbaa !9
  %179 = load ptr, ptr %2, align 8, !tbaa !4
  %180 = getelementptr inbounds nuw %struct.VP9DSPContext, ptr %179, i32 0, i32 0
  %181 = getelementptr inbounds [4 x [15 x ptr]], ptr %180, i64 0, i64 2
  %182 = getelementptr inbounds [15 x ptr], ptr %181, i64 0, i64 14
  store ptr @dc_129_16x16_c, ptr %182, align 8, !tbaa !9
  %183 = load ptr, ptr %2, align 8, !tbaa !4
  %184 = getelementptr inbounds nuw %struct.VP9DSPContext, ptr %183, i32 0, i32 0
  %185 = getelementptr inbounds [4 x [15 x ptr]], ptr %184, i64 0, i64 3
  %186 = getelementptr inbounds [15 x ptr], ptr %185, i64 0, i64 0
  store ptr @vert_32x32_c, ptr %186, align 8, !tbaa !9
  %187 = load ptr, ptr %2, align 8, !tbaa !4
  %188 = getelementptr inbounds nuw %struct.VP9DSPContext, ptr %187, i32 0, i32 0
  %189 = getelementptr inbounds [4 x [15 x ptr]], ptr %188, i64 0, i64 3
  %190 = getelementptr inbounds [15 x ptr], ptr %189, i64 0, i64 1
  store ptr @hor_32x32_c, ptr %190, align 8, !tbaa !9
  %191 = load ptr, ptr %2, align 8, !tbaa !4
  %192 = getelementptr inbounds nuw %struct.VP9DSPContext, ptr %191, i32 0, i32 0
  %193 = getelementptr inbounds [4 x [15 x ptr]], ptr %192, i64 0, i64 3
  %194 = getelementptr inbounds [15 x ptr], ptr %193, i64 0, i64 2
  store ptr @dc_32x32_c, ptr %194, align 8, !tbaa !9
  %195 = load ptr, ptr %2, align 8, !tbaa !4
  %196 = getelementptr inbounds nuw %struct.VP9DSPContext, ptr %195, i32 0, i32 0
  %197 = getelementptr inbounds [4 x [15 x ptr]], ptr %196, i64 0, i64 3
  %198 = getelementptr inbounds [15 x ptr], ptr %197, i64 0, i64 3
  store ptr @diag_downleft_32x32_c, ptr %198, align 8, !tbaa !9
  %199 = load ptr, ptr %2, align 8, !tbaa !4
  %200 = getelementptr inbounds nuw %struct.VP9DSPContext, ptr %199, i32 0, i32 0
  %201 = getelementptr inbounds [4 x [15 x ptr]], ptr %200, i64 0, i64 3
  %202 = getelementptr inbounds [15 x ptr], ptr %201, i64 0, i64 4
  store ptr @diag_downright_32x32_c, ptr %202, align 8, !tbaa !9
  %203 = load ptr, ptr %2, align 8, !tbaa !4
  %204 = getelementptr inbounds nuw %struct.VP9DSPContext, ptr %203, i32 0, i32 0
  %205 = getelementptr inbounds [4 x [15 x ptr]], ptr %204, i64 0, i64 3
  %206 = getelementptr inbounds [15 x ptr], ptr %205, i64 0, i64 5
  store ptr @vert_right_32x32_c, ptr %206, align 8, !tbaa !9
  %207 = load ptr, ptr %2, align 8, !tbaa !4
  %208 = getelementptr inbounds nuw %struct.VP9DSPContext, ptr %207, i32 0, i32 0
  %209 = getelementptr inbounds [4 x [15 x ptr]], ptr %208, i64 0, i64 3
  %210 = getelementptr inbounds [15 x ptr], ptr %209, i64 0, i64 6
  store ptr @hor_down_32x32_c, ptr %210, align 8, !tbaa !9
  %211 = load ptr, ptr %2, align 8, !tbaa !4
  %212 = getelementptr inbounds nuw %struct.VP9DSPContext, ptr %211, i32 0, i32 0
  %213 = getelementptr inbounds [4 x [15 x ptr]], ptr %212, i64 0, i64 3
  %214 = getelementptr inbounds [15 x ptr], ptr %213, i64 0, i64 7
  store ptr @vert_left_32x32_c, ptr %214, align 8, !tbaa !9
  %215 = load ptr, ptr %2, align 8, !tbaa !4
  %216 = getelementptr inbounds nuw %struct.VP9DSPContext, ptr %215, i32 0, i32 0
  %217 = getelementptr inbounds [4 x [15 x ptr]], ptr %216, i64 0, i64 3
  %218 = getelementptr inbounds [15 x ptr], ptr %217, i64 0, i64 8
  store ptr @hor_up_32x32_c, ptr %218, align 8, !tbaa !9
  %219 = load ptr, ptr %2, align 8, !tbaa !4
  %220 = getelementptr inbounds nuw %struct.VP9DSPContext, ptr %219, i32 0, i32 0
  %221 = getelementptr inbounds [4 x [15 x ptr]], ptr %220, i64 0, i64 3
  %222 = getelementptr inbounds [15 x ptr], ptr %221, i64 0, i64 10
  store ptr @dc_left_32x32_c, ptr %222, align 8, !tbaa !9
  %223 = load ptr, ptr %2, align 8, !tbaa !4
  %224 = getelementptr inbounds nuw %struct.VP9DSPContext, ptr %223, i32 0, i32 0
  %225 = getelementptr inbounds [4 x [15 x ptr]], ptr %224, i64 0, i64 3
  %226 = getelementptr inbounds [15 x ptr], ptr %225, i64 0, i64 11
  store ptr @dc_top_32x32_c, ptr %226, align 8, !tbaa !9
  %227 = load ptr, ptr %2, align 8, !tbaa !4
  %228 = getelementptr inbounds nuw %struct.VP9DSPContext, ptr %227, i32 0, i32 0
  %229 = getelementptr inbounds [4 x [15 x ptr]], ptr %228, i64 0, i64 3
  %230 = getelementptr inbounds [15 x ptr], ptr %229, i64 0, i64 9
  store ptr @tm_32x32_c, ptr %230, align 8, !tbaa !9
  %231 = load ptr, ptr %2, align 8, !tbaa !4
  %232 = getelementptr inbounds nuw %struct.VP9DSPContext, ptr %231, i32 0, i32 0
  %233 = getelementptr inbounds [4 x [15 x ptr]], ptr %232, i64 0, i64 3
  %234 = getelementptr inbounds [15 x ptr], ptr %233, i64 0, i64 12
  store ptr @dc_128_32x32_c, ptr %234, align 8, !tbaa !9
  %235 = load ptr, ptr %2, align 8, !tbaa !4
  %236 = getelementptr inbounds nuw %struct.VP9DSPContext, ptr %235, i32 0, i32 0
  %237 = getelementptr inbounds [4 x [15 x ptr]], ptr %236, i64 0, i64 3
  %238 = getelementptr inbounds [15 x ptr], ptr %237, i64 0, i64 13
  store ptr @dc_127_32x32_c, ptr %238, align 8, !tbaa !9
  %239 = load ptr, ptr %2, align 8, !tbaa !4
  %240 = getelementptr inbounds nuw %struct.VP9DSPContext, ptr %239, i32 0, i32 0
  %241 = getelementptr inbounds [4 x [15 x ptr]], ptr %240, i64 0, i64 3
  %242 = getelementptr inbounds [15 x ptr], ptr %241, i64 0, i64 14
  store ptr @dc_129_32x32_c, ptr %242, align 8, !tbaa !9
  ret void
}