; Function Attrs: cold mustprogress nofree norecurse nosync nounwind optsize willreturn memory(argmem: write) uwtable
define void @ff_vp9dsp_intrapred_init_10(ptr noundef writeonly initializes((0, 480)) %0) local_unnamed_addr #0 {
  store ptr @vert_4x4_c, ptr %0, align 8, !tbaa !4
  %2 = getelementptr inbounds nuw i8, ptr %0, i64 8
  store ptr @hor_4x4_c, ptr %2, align 8, !tbaa !4
  %3 = getelementptr inbounds nuw i8, ptr %0, i64 16
  store ptr @dc_4x4_c, ptr %3, align 8, !tbaa !4
  %4 = getelementptr inbounds nuw i8, ptr %0, i64 24
  store ptr @diag_downleft_4x4_c, ptr %4, align 8, !tbaa !4
  %5 = getelementptr inbounds nuw i8, ptr %0, i64 32
  store ptr @diag_downright_4x4_c, ptr %5, align 8, !tbaa !4
  %6 = getelementptr inbounds nuw i8, ptr %0, i64 40
  store ptr @vert_right_4x4_c, ptr %6, align 8, !tbaa !4
  %7 = getelementptr inbounds nuw i8, ptr %0, i64 48
  store ptr @hor_down_4x4_c, ptr %7, align 8, !tbaa !4
  %8 = getelementptr inbounds nuw i8, ptr %0, i64 56
  store ptr @vert_left_4x4_c, ptr %8, align 8, !tbaa !4
  %9 = getelementptr inbounds nuw i8, ptr %0, i64 64
  store ptr @hor_up_4x4_c, ptr %9, align 8, !tbaa !4
  %10 = getelementptr inbounds nuw i8, ptr %0, i64 80
  store ptr @dc_left_4x4_c, ptr %10, align 8, !tbaa !4
  %11 = getelementptr inbounds nuw i8, ptr %0, i64 88
  store ptr @dc_top_4x4_c, ptr %11, align 8, !tbaa !4
  %12 = getelementptr inbounds nuw i8, ptr %0, i64 72
  store ptr @tm_4x4_c, ptr %12, align 8, !tbaa !4
  %13 = getelementptr inbounds nuw i8, ptr %0, i64 96
  store ptr @dc_128_4x4_c, ptr %13, align 8, !tbaa !4
  %14 = getelementptr inbounds nuw i8, ptr %0, i64 104
  store ptr @dc_127_4x4_c, ptr %14, align 8, !tbaa !4
  %15 = getelementptr inbounds nuw i8, ptr %0, i64 112
  store ptr @dc_129_4x4_c, ptr %15, align 8, !tbaa !4
  %16 = getelementptr inbounds nuw i8, ptr %0, i64 120
  store ptr @vert_8x8_c, ptr %16, align 8, !tbaa !4
  %17 = getelementptr inbounds nuw i8, ptr %0, i64 128
  store ptr @hor_8x8_c, ptr %17, align 8, !tbaa !4
  %18 = getelementptr inbounds nuw i8, ptr %0, i64 136
  store ptr @dc_8x8_c, ptr %18, align 8, !tbaa !4
  %19 = getelementptr inbounds nuw i8, ptr %0, i64 144
  store ptr @diag_downleft_8x8_c, ptr %19, align 8, !tbaa !4
  %20 = getelementptr inbounds nuw i8, ptr %0, i64 152
  store ptr @diag_downright_8x8_c, ptr %20, align 8, !tbaa !4
  %21 = getelementptr inbounds nuw i8, ptr %0, i64 160
  store ptr @vert_right_8x8_c, ptr %21, align 8, !tbaa !4
  %22 = getelementptr inbounds nuw i8, ptr %0, i64 168
  store ptr @hor_down_8x8_c, ptr %22, align 8, !tbaa !4
  %23 = getelementptr inbounds nuw i8, ptr %0, i64 176
  store ptr @vert_left_8x8_c, ptr %23, align 8, !tbaa !4
  %24 = getelementptr inbounds nuw i8, ptr %0, i64 184
  store ptr @hor_up_8x8_c, ptr %24, align 8, !tbaa !4
  %25 = getelementptr inbounds nuw i8, ptr %0, i64 200
  store ptr @dc_left_8x8_c, ptr %25, align 8, !tbaa !4
  %26 = getelementptr inbounds nuw i8, ptr %0, i64 208
  store ptr @dc_top_8x8_c, ptr %26, align 8, !tbaa !4
  %27 = getelementptr inbounds nuw i8, ptr %0, i64 192
  store ptr @tm_8x8_c, ptr %27, align 8, !tbaa !4
  %28 = getelementptr inbounds nuw i8, ptr %0, i64 216
  store ptr @dc_128_8x8_c, ptr %28, align 8, !tbaa !4
  %29 = getelementptr inbounds nuw i8, ptr %0, i64 224
  store ptr @dc_127_8x8_c, ptr %29, align 8, !tbaa !4
  %30 = getelementptr inbounds nuw i8, ptr %0, i64 232
  store ptr @dc_129_8x8_c, ptr %30, align 8, !tbaa !4
  %31 = getelementptr inbounds nuw i8, ptr %0, i64 240
  store ptr @vert_16x16_c, ptr %31, align 8, !tbaa !4
  %32 = getelementptr inbounds nuw i8, ptr %0, i64 248
  store ptr @hor_16x16_c, ptr %32, align 8, !tbaa !4
  %33 = getelementptr inbounds nuw i8, ptr %0, i64 256
  store ptr @dc_16x16_c, ptr %33, align 8, !tbaa !4
  %34 = getelementptr inbounds nuw i8, ptr %0, i64 264
  store ptr @diag_downleft_16x16_c, ptr %34, align 8, !tbaa !4
  %35 = getelementptr inbounds nuw i8, ptr %0, i64 272
  store ptr @diag_downright_16x16_c, ptr %35, align 8, !tbaa !4
  %36 = getelementptr inbounds nuw i8, ptr %0, i64 280
  store ptr @vert_right_16x16_c, ptr %36, align 8, !tbaa !4
  %37 = getelementptr inbounds nuw i8, ptr %0, i64 288
  store ptr @hor_down_16x16_c, ptr %37, align 8, !tbaa !4
  %38 = getelementptr inbounds nuw i8, ptr %0, i64 296
  store ptr @vert_left_16x16_c, ptr %38, align 8, !tbaa !4
  %39 = getelementptr inbounds nuw i8, ptr %0, i64 304
  store ptr @hor_up_16x16_c, ptr %39, align 8, !tbaa !4
  %40 = getelementptr inbounds nuw i8, ptr %0, i64 320
  store ptr @dc_left_16x16_c, ptr %40, align 8, !tbaa !4
  %41 = getelementptr inbounds nuw i8, ptr %0, i64 328
  store ptr @dc_top_16x16_c, ptr %41, align 8, !tbaa !4
  %42 = getelementptr inbounds nuw i8, ptr %0, i64 312
  store ptr @tm_16x16_c, ptr %42, align 8, !tbaa !4
  %43 = getelementptr inbounds nuw i8, ptr %0, i64 336
  store ptr @dc_128_16x16_c, ptr %43, align 8, !tbaa !4
  %44 = getelementptr inbounds nuw i8, ptr %0, i64 344
  store ptr @dc_127_16x16_c, ptr %44, align 8, !tbaa !4
  %45 = getelementptr inbounds nuw i8, ptr %0, i64 352
  store ptr @dc_129_16x16_c, ptr %45, align 8, !tbaa !4
  %46 = getelementptr inbounds nuw i8, ptr %0, i64 360
  store ptr @vert_32x32_c, ptr %46, align 8, !tbaa !4
  %47 = getelementptr inbounds nuw i8, ptr %0, i64 368
  store ptr @hor_32x32_c, ptr %47, align 8, !tbaa !4
  %48 = getelementptr inbounds nuw i8, ptr %0, i64 376
  store ptr @dc_32x32_c, ptr %48, align 8, !tbaa !4
  %49 = getelementptr inbounds nuw i8, ptr %0, i64 384
  store ptr @diag_downleft_32x32_c, ptr %49, align 8, !tbaa !4
  %50 = getelementptr inbounds nuw i8, ptr %0, i64 392
  store ptr @diag_downright_32x32_c, ptr %50, align 8, !tbaa !4
  %51 = getelementptr inbounds nuw i8, ptr %0, i64 400
  store ptr @vert_right_32x32_c, ptr %51, align 8, !tbaa !4
  %52 = getelementptr inbounds nuw i8, ptr %0, i64 408
  store ptr @hor_down_32x32_c, ptr %52, align 8, !tbaa !4
  %53 = getelementptr inbounds nuw i8, ptr %0, i64 416
  store ptr @vert_left_32x32_c, ptr %53, align 8, !tbaa !4
  %54 = getelementptr inbounds nuw i8, ptr %0, i64 424
  store ptr @hor_up_32x32_c, ptr %54, align 8, !tbaa !4
  %55 = getelementptr inbounds nuw i8, ptr %0, i64 440
  store ptr @dc_left_32x32_c, ptr %55, align 8, !tbaa !4
  %56 = getelementptr inbounds nuw i8, ptr %0, i64 448
  store ptr @dc_top_32x32_c, ptr %56, align 8, !tbaa !4
  %57 = getelementptr inbounds nuw i8, ptr %0, i64 432
  store ptr @tm_32x32_c, ptr %57, align 8, !tbaa !4
  %58 = getelementptr inbounds nuw i8, ptr %0, i64 456
  store ptr @dc_128_32x32_c, ptr %58, align 8, !tbaa !4
  %59 = getelementptr inbounds nuw i8, ptr %0, i64 464
  store ptr @dc_127_32x32_c, ptr %59, align 8, !tbaa !4
  %60 = getelementptr inbounds nuw i8, ptr %0, i64 472
  store ptr @dc_129_32x32_c, ptr %60, align 8, !tbaa !4
  ret void
}